target datalayout = "e-m:e-p270:32:32-p271:32:32-p272:64:64-i64:64-i128:128-f80:128-n8:16:32:64-S128"
target triple = "x86_64-pc-linux-gnu"

%struct.blake2sp_state__ = type { [8 x [1 x %struct.blake2s_state__]], [1 x %struct.blake2s_state__], [512 x i8], i64, i64 }
%struct.blake2s_state__ = type { [8 x i32], [2 x i32], [2 x i32], [64 x i8], i64, i64, i8 }

; Function Attrs: nounwind uwtable
define dso_local i32 @blake2sp_final(ptr noundef %0, ptr noundef %1, i64 noundef %2) #0 {
  %4 = alloca i32, align 4
  %5 = alloca ptr, align 8
  %6 = alloca ptr, align 8
  %7 = alloca i64, align 8
  %8 = alloca [8 x [32 x i8]], align 16
  %9 = alloca i64, align 8
  %10 = alloca i32, align 4
  %11 = alloca i64, align 8
  store ptr %0, ptr %5, align 8, !tbaa !4
  store ptr %1, ptr %6, align 8, !tbaa !30
  store i64 %2, ptr %7, align 8, !tbaa !9
  call void @llvm.lifetime.start.p0(i64 256, ptr %8) #7
  call void @llvm.lifetime.start.p0(i64 8, ptr %9) #7
  %12 = load ptr, ptr %6, align 8, !tbaa !30
  %13 = icmp eq ptr %12, null
  br i1 %13, label %20, label %14

14:                                               ; preds = %3
  %15 = load i64, ptr %7, align 8, !tbaa !9
  %16 = load ptr, ptr %5, align 8, !tbaa !4
  %17 = getelementptr inbounds nuw %struct.blake2sp_state__, ptr %16, i32 0, i32 4
  %18 = load i64, ptr %17, align 8, !tbaa !13
  %19 = icmp ult i64 %15, %18
  br i1 %19, label %20, label %21

20:                                               ; preds = %14, %3
  store i32 -1, ptr %4, align 4
  store i32 1, ptr %10, align 4
  br label %93

21:                                               ; preds = %14
  store i64 0, ptr %9, align 8, !tbaa !9
  br label %22

22:                                               ; preds = %66, %21
  %23 = load i64, ptr %9, align 8, !tbaa !9
  %24 = icmp ult i64 %23, 8
  br i1 %24, label %25, label %69

25:                                               ; preds = %22
  %26 = load ptr, ptr %5, align 8, !tbaa !4
  %27 = getelementptr inbounds nuw %struct.blake2sp_state__, ptr %26, i32 0, i32 3
  %28 = load i64, ptr %27, align 8, !tbaa !11
  %29 = load i64, ptr %9, align 8, !tbaa !9
  %30 = mul i64 %29, 64
  %31 = icmp ugt i64 %28, %30
  br i1 %31, label %32, label %56

32:                                               ; preds = %25
  call void @llvm.lifetime.start.p0(i64 8, ptr %11) #7
  %33 = load ptr, ptr %5, align 8, !tbaa !4
  %34 = getelementptr inbounds nuw %struct.blake2sp_state__, ptr %33, i32 0, i32 3
  %35 = load i64, ptr %34, align 8, !tbaa !11
  %36 = load i64, ptr %9, align 8, !tbaa !9
  %37 = mul i64 %36, 64
  %38 = sub i64 %35, %37
  store i64 %38, ptr %11, align 8, !tbaa !9
  %39 = load i64, ptr %11, align 8, !tbaa !9
  %40 = icmp ugt i64 %39, 64
  br i1 %40, label %41, label %42

41:                                               ; preds = %32
  store i64 64, ptr %11, align 8, !tbaa !9
  br label %42

42:                                               ; preds = %41, %32
  %43 = load ptr, ptr %5, align 8, !tbaa !4
  %44 = getelementptr inbounds nuw %struct.blake2sp_state__, ptr %43, i32 0, i32 0
  %45 = load i64, ptr %9, align 8, !tbaa !9
  %46 = getelementptr inbounds nuw [8 x [1 x %struct.blake2s_state__]], ptr %44, i64 0, i64 %45
  %47 = getelementptr inbounds [1 x %struct.blake2s_state__], ptr %46, i64 0, i64 0
  %48 = load ptr, ptr %5, align 8, !tbaa !4
  %49 = getelementptr inbounds nuw %struct.blake2sp_state__, ptr %48, i32 0, i32 2
  %50 = getelementptr inbounds [512 x i8], ptr %49, i64 0, i64 0
  %51 = load i64, ptr %9, align 8, !tbaa !9
  %52 = mul i64 %51, 64
  %53 = getelementptr inbounds nuw i8, ptr %50, i64 %52
  %54 = load i64, ptr %11, align 8, !tbaa !9
  %55 = call i32 @blake2s_update(ptr noundef %47, ptr noundef %53, i64 noundef %54)
  call void @llvm.lifetime.end.p0(i64 8, ptr %11) #7
  br label %56

56:                                               ; preds = %42, %25
  %57 = load ptr, ptr %5, align 8, !tbaa !4
  %58 = getelementptr inbounds nuw %struct.blake2sp_state__, ptr %57, i32 0, i32 0
  %59 = load i64, ptr %9, align 8, !tbaa !9
  %60 = getelementptr inbounds nuw [8 x [1 x %struct.blake2s_state__]], ptr %58, i64 0, i64 %59
  %61 = getelementptr inbounds [1 x %struct.blake2s_state__], ptr %60, i64 0, i64 0
  %62 = load i64, ptr %9, align 8, !tbaa !9
  %63 = getelementptr inbounds nuw [8 x [32 x i8]], ptr %8, i64 0, i64 %62
  %64 = getelementptr inbounds [32 x i8], ptr %63, i64 0, i64 0
  %65 = call i32 @blake2s_final(ptr noundef %61, ptr noundef %64, i64 noundef 32)
  br label %66

66:                                               ; preds = %56
  %67 = load i64, ptr %9, align 8, !tbaa !9
  %68 = add i64 %67, 1
  store i64 %68, ptr %9, align 8, !tbaa !9
  br label %22, !llvm.loop !38

69:                                               ; preds = %22
  store i64 0, ptr %9, align 8, !tbaa !9
  br label %70

70:                                               ; preds = %81, %69
  %71 = load i64, ptr %9, align 8, !tbaa !9
  %72 = icmp ult i64 %71, 8
  br i1 %72, label %73, label %84

73:                                               ; preds = %70
  %74 = load ptr, ptr %5, align 8, !tbaa !4
  %75 = getelementptr inbounds nuw %struct.blake2sp_state__, ptr %74, i32 0, i32 1
  %76 = getelementptr inbounds [1 x %struct.blake2s_state__], ptr %75, i64 0, i64 0
  %77 = load i64, ptr %9, align 8, !tbaa !9
  %78 = getelementptr inbounds nuw [8 x [32 x i8]], ptr %8, i64 0, i64 %77
  %79 = getelementptr inbounds [32 x i8], ptr %78, i64 0, i64 0
  %80 = call i32 @blake2s_update(ptr noundef %76, ptr noundef %79, i64 noundef 32)
  br label %81

81:                                               ; preds = %73
  %82 = load i64, ptr %9, align 8, !tbaa !9
  %83 = add i64 %82, 1
  store i64 %83, ptr %9, align 8, !tbaa !9
  br label %70, !llvm.loop !39

84:                                               ; preds = %70
  %85 = load ptr, ptr %5, align 8, !tbaa !4
  %86 = getelementptr inbounds nuw %struct.blake2sp_state__, ptr %85, i32 0, i32 1
  %87 = getelementptr inbounds [1 x %struct.blake2s_state__], ptr %86, i64 0, i64 0
  %88 = load ptr, ptr %6, align 8, !tbaa !30
  %89 = load ptr, ptr %5, align 8, !tbaa !4
  %90 = getelementptr inbounds nuw %struct.blake2sp_state__, ptr %89, i32 0, i32 4
  %91 = load i64, ptr %90, align 8, !tbaa !13
  %92 = call i32 @blake2s_final(ptr noundef %87, ptr noundef %88, i64 noundef %91)
  store i32 %92, ptr %4, align 4
  store i32 1, ptr %10, align 4
  br label %93

93:                                               ; preds = %84, %20
  call void @llvm.lifetime.end.p0(i64 8, ptr %9) #7
  call void @llvm.lifetime.end.p0(i64 256, ptr %8) #7
  %94 = load i32, ptr %4, align 4
  ret i32 %94
}