; Function Attrs: nounwind uwtable
define dso_local i32 @blake2sp_final(ptr noundef %0, ptr noundef %1, i64 noundef %2) local_unnamed_addr #0 {
  %4 = alloca [8 x [32 x i8]], align 16
  call void @llvm.lifetime.start.p0(i64 256, ptr nonnull %4) #7
  %5 = icmp eq ptr %1, null
  br i1 %5, label %34, label %6

6:                                                ; preds = %3
  %7 = getelementptr inbounds nuw i8, ptr %0, i64 1744
  %8 = load i64, ptr %7, align 8, !tbaa !4
  %9 = icmp ult i64 %2, %8
  br i1 %9, label %34, label %.preheader29

.preheader29:                                     ; preds = %6
  %10 = getelementptr inbounds nuw i8, ptr %0, i64 1736
  %11 = getelementptr inbounds nuw i8, ptr %0, i64 1224
  br label %13

.preheader:                                       ; preds = %22
  %12 = getelementptr inbounds nuw i8, ptr %0, i64 1088
  br label %27

13:                                               ; preds = %.preheader29, %22
  %.02530 = phi i64 [ 0, %.preheader29 ], [ %26, %22 ]
  %14 = load i64, ptr %10, align 8, !tbaa !28
  %15 = shl nuw nsw i64 %.02530, 6
  %16 = icmp ugt i64 %14, %15
  br i1 %16, label %17, label %22

17:                                               ; preds = %13
  %18 = sub nuw i64 %14, %15
  %spec.store.select = call i64 @llvm.umin.i64(i64 %18, i64 64)
  %19 = getelementptr inbounds nuw [8 x [1 x %struct.blake2s_state__]], ptr %0, i64 0, i64 %.02530
  %20 = getelementptr inbounds nuw i8, ptr %11, i64 %15
  %21 = call i32 @blake2s_update(ptr noundef %19, ptr noundef nonnull %20, i64 noundef %spec.store.select) #7
  br label %22

22:                                               ; preds = %17, %13
  %23 = getelementptr inbounds nuw [8 x [1 x %struct.blake2s_state__]], ptr %0, i64 0, i64 %.02530
  %24 = getelementptr inbounds nuw [8 x [32 x i8]], ptr %4, i64 0, i64 %.02530
  %25 = call i32 @blake2s_final(ptr noundef %23, ptr noundef nonnull %24, i64 noundef 32) #7
  %26 = add nuw nsw i64 %.02530, 1
  %exitcond.not = icmp eq i64 %26, 8
  br i1 %exitcond.not, label %.preheader, label %13, !llvm.loop !32

27:                                               ; preds = %.preheader, %27
  %.131 = phi i64 [ 0, %.preheader ], [ %30, %27 ]
  %28 = getelementptr inbounds nuw [8 x [32 x i8]], ptr %4, i64 0, i64 %.131
  %29 = call i32 @blake2s_update(ptr noundef nonnull %12, ptr noundef nonnull %28, i64 noundef 32) #7
  %30 = add nuw nsw i64 %.131, 1
  %exitcond32.not = icmp eq i64 %30, 8
  br i1 %exitcond32.not, label %31, label %27, !llvm.loop !33

31:                                               ; preds = %27
  %32 = load i64, ptr %7, align 8, !tbaa !4
  %33 = call i32 @blake2s_final(ptr noundef nonnull %12, ptr noundef nonnull %1, i64 noundef %32) #7
  br label %34

34:                                               ; preds = %3, %6, %31
  %.0 = phi i32 [ %33, %31 ], [ -1, %6 ], [ -1, %3 ]
  call void @llvm.lifetime.end.p0(i64 256, ptr nonnull %4) #7
  ret i32 %.0
}